; Function Attrs: mustprogress uwtable
define internal void @"_ZNSt3__110__function6__funcIZN3tev11ImageViewerC1ERKNS_10shared_ptrINS2_22BackgroundImagesLoaderEEEbbbE3$_6NS_9allocatorIS9_EEFvvEEclEv"(ptr nocapture noundef nonnull readonly align 8 dereferenceable(16) %0) unnamed_addr #7 align 2 {
  %2 = getelementptr inbounds i8, ptr %0, i64 8
  %.val = load ptr, ptr %2, align 8
  tail call void @_ZN3tev11ImageViewer11setExposureEf(ptr noundef nonnull align 16 dereferenceable(972) %.val, float noundef 0.000000e+00)
  tail call void @_ZN3tev11ImageViewer9setOffsetEf(ptr noundef nonnull align 16 dereferenceable(972) %.val, float noundef 0.000000e+00)
  tail call void @_ZN3tev11ImageViewer8setGammaEf(ptr noundef nonnull align 16 dereferenceable(972) %.val, float noundef 0x40019999A0000000)
  %3 = getelementptr inbounds i8, ptr %.val, i64 872
  %4 = load ptr, ptr %3, align 8
  tail call void @_ZN3tev11ImageCanvas14resetTransformEv(ptr noundef nonnull align 8 dereferenceable(376) %4)
  ret void
}